; ModuleID = 'source-C-CXX/59/1928.c'
source_filename = "source-C-CXX/59/1928.c"
target datalayout = "e-m:e-p270:32:32-p271:32:32-p272:64:64-i64:64-f80:128-n8:16:32:64-S128"
target triple = "x86_64-pc-linux-gnu"

@.str = private unnamed_addr constant [3 x i8] c"%d\00", align 1
@.str.1 = private unnamed_addr constant [6 x i8] c"%d %d\00", align 1
@.str.3 = private unnamed_addr constant [6 x i8] c"empty\00", align 1

; Function Attrs: nofree nounwind sspstrong uwtable
define dso_local i32 @main() local_unnamed_addr #0 {
  %1 = alloca i32, align 4
  %2 = bitcast i32* %1 to i8*
  call void @llvm.lifetime.start.p0i8(i64 4, i8* nonnull %2) #5
  %3 = call i32 (i8*, ...) @__isoc99_scanf(i8* getelementptr inbounds ([3 x i8], [3 x i8]* @.str, i64 0, i64 0), i32* nonnull %1)
  %4 = load i32, i32* %1, align 4, !tbaa !5
  %5 = icmp slt i32 %4, 5
  br i1 %5, label %48, label %8

6:                                                ; preds = %42
  %7 = icmp eq i32 %44, 0
  br i1 %7, label %48, label %50

8:                                                ; preds = %0, %42
  %9 = phi i32 [ %43, %42 ], [ 3, %0 ]
  %10 = phi i32 [ %44, %42 ], [ 0, %0 ]
  %11 = sitofp i32 %9 to double
  %12 = call double @sqrt(double %11) #5
  %13 = fcmp ult double %12, 2.000000e+00
  br i1 %13, label %23, label %18

14:                                               ; preds = %18
  %15 = sitofp i32 %22 to double
  %16 = call double @sqrt(double %11) #5
  %17 = fcmp ult double %16, %15
  br i1 %17, label %23, label %18, !llvm.loop !9

18:                                               ; preds = %8, %14
  %19 = phi i32 [ %22, %14 ], [ 2, %8 ]
  %20 = urem i32 %9, %19
  %21 = icmp eq i32 %20, 0
  %22 = add nuw nsw i32 %19, 1
  br i1 %21, label %40, label %14

23:                                               ; preds = %14, %8
  %24 = add nuw nsw i32 %9, 2
  %25 = sitofp i32 %24 to double
  %26 = call double @sqrt(double %25) #5
  %27 = fcmp ult double %26, 2.000000e+00
  br i1 %27, label %37, label %32

28:                                               ; preds = %32
  %29 = sitofp i32 %36 to double
  %30 = call double @sqrt(double %25) #5
  %31 = fcmp ult double %30, %29
  br i1 %31, label %37, label %32, !llvm.loop !9

32:                                               ; preds = %23, %28
  %33 = phi i32 [ %36, %28 ], [ 2, %23 ]
  %34 = urem i32 %24, %33
  %35 = icmp eq i32 %34, 0
  %36 = add nuw nsw i32 %33, 1
  br i1 %35, label %42, label %28

37:                                               ; preds = %28, %23
  %38 = call i32 (i8*, ...) @printf(i8* nonnull dereferenceable(1) getelementptr inbounds ([6 x i8], [6 x i8]* @.str.1, i64 0, i64 0), i32 %9, i32 %24)
  %39 = call i32 @putchar(i32 10)
  br label %42

40:                                               ; preds = %18
  %41 = add nuw nsw i32 %9, 2
  br label %42

42:                                               ; preds = %32, %40, %37
  %43 = phi i32 [ %41, %40 ], [ %24, %37 ], [ %24, %32 ]
  %44 = phi i32 [ %10, %40 ], [ 1, %37 ], [ %10, %32 ]
  %45 = load i32, i32* %1, align 4, !tbaa !5
  %46 = add nsw i32 %45, -2
  %47 = icmp sgt i32 %43, %46
  br i1 %47, label %6, label %8, !llvm.loop !11

48:                                               ; preds = %0, %6
  %49 = call i32 (i8*, ...) @printf(i8* nonnull dereferenceable(1) getelementptr inbounds ([6 x i8], [6 x i8]* @.str.3, i64 0, i64 0))
  br label %50

50:                                               ; preds = %48, %6
  call void @llvm.lifetime.end.p0i8(i64 4, i8* nonnull %2) #5
  ret i32 0
}

; Function Attrs: argmemonly mustprogress nofree nosync nounwind willreturn
declare void @llvm.lifetime.start.p0i8(i64 immarg, i8* nocapture) #1

; Function Attrs: nofree nounwind
declare noundef i32 @__isoc99_scanf(i8* nocapture noundef readonly, ...) local_unnamed_addr #2

; Function Attrs: nofree nounwind sspstrong uwtable
define dso_local i32 @judge(i32 %0) local_unnamed_addr #0 {
  %2 = sitofp i32 %0 to double
  %3 = tail call double @sqrt(double %2) #5
  %4 = fcmp ult double %3, 2.000000e+00
  br i1 %4, label %17, label %9

5:                                                ; preds = %9
  %6 = sitofp i32 %13 to double
  %7 = tail call double @sqrt(double %2) #5
  %8 = fcmp ult double %7, %6
  br i1 %8, label %14, label %9, !llvm.loop !9

9:                                                ; preds = %1, %5
  %10 = phi i32 [ %13, %5 ], [ 2, %1 ]
  %11 = srem i32 %0, %10
  %12 = icmp eq i32 %11, 0
  %13 = add nuw nsw i32 %10, 1
  br i1 %12, label %14, label %5

14:                                               ; preds = %9, %5
  %15 = xor i1 %12, true
  %16 = zext i1 %15 to i32
  br label %17

17:                                               ; preds = %14, %1
  %18 = phi i32 [ 1, %1 ], [ %16, %14 ]
  ret i32 %18
}

; Function Attrs: nofree nounwind
declare noundef i32 @printf(i8* nocapture noundef readonly, ...) local_unnamed_addr #2

; Function Attrs: argmemonly mustprogress nofree nosync nounwind willreturn
declare void @llvm.lifetime.end.p0i8(i64 immarg, i8* nocapture) #1

; Function Attrs: mustprogress nofree nounwind willreturn
declare double @sqrt(double) local_unnamed_addr #3

; Function Attrs: nofree nounwind
declare noundef i32 @putchar(i32 noundef) local_unnamed_addr #4


!llvm.module.flags = !{!0, !1, !2, !3}
!llvm.ident = !{!4}

!0 = !{i32 1, !"wchar_size", i32 4}
!1 = !{i32 7, !"PIC Level", i32 2}
!2 = !{i32 7, !"PIE Level", i32 2}
!3 = !{i32 7, !"uwtable", i32 1}
!4 = !{!"clang version 13.0.0"}
!5 = !{!6, !6, i64 0}
!6 = !{!"int", !7, i64 0}
!7 = !{!"omnipotent char", !8, i64 0}
!8 = !{!"Simple C/C++ TBAA"}
!9 = distinct !{!9, !10}
!10 = !{!"llvm.loop.mustprogress"}
!11 = distinct !{!11, !10}
